target datalayout = "e-m:e-p270:32:32-p271:32:32-p272:64:64-i64:64-i128:128-f80:128-n8:16:32:64-S128"
target triple = "x86_64-pc-linux-gnu"

%struct._zval_struct = type { %union._zend_value, %union.anon, %union.anon.2 }
%union._zend_value = type { i64 }
%union.anon = type { i32 }
%union.anon.2 = type { i32 }
%struct._zend_array = type { %struct._zend_refcounted_h, %union.anon.4, i32, %union.anon.6, i32, i32, i32, i32, i64, ptr }
%struct._zend_refcounted_h = type { i32, %union.anon.3 }
%union.anon.3 = type { i32 }
%union.anon.4 = type { i32 }
%union.anon.6 = type { ptr }
%struct._php_basic_globals = type { ptr, %struct._zend_array, ptr, ptr, i8, ptr, [256 x i8], i64, %struct._zend_fcall_info, %struct._zend_fcall_info_cache, ptr, %struct._zval_struct, %struct._zval_struct, i64, i64, i64, i64, ptr, ptr, %struct._php_stream_statbuf, %struct._php_stream_statbuf, ptr, i32, %struct.anon.8, %struct.anon.9, %struct.url_adapt_state_ex_t, %struct._zend_array, %struct.url_adapt_state_ex_t, %struct._zend_array, ptr, i32, i64 }
%struct._zend_fcall_info = type { i64, %struct._zval_struct, ptr, ptr, ptr, i32, ptr }
%struct._zend_fcall_info_cache = type { ptr, ptr, ptr, ptr, ptr }
%struct._php_stream_statbuf = type { %struct.stat }
%struct.stat = type { i64, i64, i64, i32, i32, i32, i32, i64, i64, i64, i64, %struct.timespec, %struct.timespec, %struct.timespec, [3 x i64] }
%struct.timespec = type { i64, i64 }
%struct.anon.8 = type { ptr, i32 }
%struct.anon.9 = type { ptr, i32 }
%struct.url_adapt_state_ex_t = type { %struct.smart_str, %struct.smart_str, %struct.smart_str, %struct.smart_str, %struct.smart_str, %struct.smart_str, %struct.smart_str, i32, ptr, i32, i32, %struct.smart_str, i32, i32, ptr }
%struct.smart_str = type { ptr, i64 }
%struct._zend_execute_data = type { ptr, ptr, ptr, ptr, %struct._zval_struct, ptr, ptr, ptr, ptr }
%struct.anon.0 = type { i8, i8, %union.anon.1 }
%union.anon.1 = type { i16 }

@basic_globals = external global %struct._php_basic_globals, align 8

; Function Attrs: alwaysinline nounwind uwtable
define internal zeroext i8 @zval_get_type(ptr noundef %0) #7 {
  %2 = alloca ptr, align 8
  store ptr %0, ptr %2, align 8, !tbaa !30
  %3 = load ptr, ptr %2, align 8, !tbaa !30
  %4 = getelementptr inbounds nuw %struct._zval_struct, ptr %3, i32 0, i32 1
  %5 = getelementptr inbounds nuw %struct.anon.0, ptr %4, i32 0, i32 0
  %6 = load i8, ptr %5, align 8, !tbaa !17
  ret i8 %6
}

; Function Attrs: alwaysinline nounwind uwtable
define internal zeroext i1 @zend_parse_arg_long_ex(ptr noundef %0, ptr noundef %1, ptr noundef %2, i1 noundef zeroext %3, i32 noundef %4, i1 noundef zeroext %5) #7 {
  %7 = alloca i1, align 1
  %8 = alloca ptr, align 8
  %9 = alloca ptr, align 8
  %10 = alloca ptr, align 8
  %11 = alloca i8, align 1
  %12 = alloca i32, align 4
  %13 = alloca i8, align 1
  store ptr %0, ptr %8, align 8, !tbaa !30
  store ptr %1, ptr %9, align 8, !tbaa !69
  store ptr %2, ptr %10, align 8, !tbaa !71
  %14 = zext i1 %3 to i8
  store i8 %14, ptr %11, align 1, !tbaa !64
  store i32 %4, ptr %12, align 4, !tbaa !4
  %15 = zext i1 %5 to i8
  store i8 %15, ptr %13, align 1, !tbaa !64
  %16 = load i8, ptr %11, align 1, !tbaa !64, !range !65, !noundef !66
  %17 = trunc i8 %16 to i1
  br i1 %17, label %18, label %20

18:                                               ; preds = %6
  %19 = load ptr, ptr %10, align 8, !tbaa !71
  store i8 0, ptr %19, align 1, !tbaa !64
  br label %20

20:                                               ; preds = %18, %6
  %21 = load ptr, ptr %8, align 8, !tbaa !30
  %22 = call zeroext i8 @zval_get_type(ptr noundef %21)
  %23 = zext i8 %22 to i32
  %24 = icmp eq i32 %23, 4
  %25 = xor i1 %24, true
  %26 = xor i1 %25, true
  %27 = zext i1 %26 to i32
  %28 = sext i32 %27 to i64
  %29 = call i64 @llvm.expect.i64(i64 %28, i64 1)
  %30 = icmp ne i64 %29, 0
  br i1 %30, label %31, label %36

31:                                               ; preds = %20
  %32 = load ptr, ptr %8, align 8, !tbaa !30
  %33 = getelementptr inbounds nuw %struct._zval_struct, ptr %32, i32 0, i32 0
  %34 = load i64, ptr %33, align 8, !tbaa !17
  %35 = load ptr, ptr %9, align 8, !tbaa !69
  store i64 %34, ptr %35, align 8, !tbaa !29
  br label %61

36:                                               ; preds = %20
  %37 = load i8, ptr %11, align 1, !tbaa !64, !range !65, !noundef !66
  %38 = trunc i8 %37 to i1
  br i1 %38, label %39, label %47

39:                                               ; preds = %36
  %40 = load ptr, ptr %8, align 8, !tbaa !30
  %41 = call zeroext i8 @zval_get_type(ptr noundef %40)
  %42 = zext i8 %41 to i32
  %43 = icmp eq i32 %42, 1
  br i1 %43, label %44, label %47

44:                                               ; preds = %39
  %45 = load ptr, ptr %10, align 8, !tbaa !71
  store i8 1, ptr %45, align 1, !tbaa !64
  %46 = load ptr, ptr %9, align 8, !tbaa !69
  store i64 0, ptr %46, align 8, !tbaa !29
  br label %60

47:                                               ; preds = %39, %36
  %48 = load i8, ptr %13, align 1, !tbaa !64, !range !65, !noundef !66
  %49 = trunc i8 %48 to i1
  br i1 %49, label %50, label %55

50:                                               ; preds = %47
  %51 = load ptr, ptr %8, align 8, !tbaa !30
  %52 = load ptr, ptr %9, align 8, !tbaa !69
  %53 = load i32, ptr %12, align 4, !tbaa !4
  %54 = call zeroext i1 @zend_flf_parse_arg_long_slow(ptr noundef %51, ptr noundef %52, i32 noundef %53)
  store i1 %54, ptr %7, align 1
  br label %62

55:                                               ; preds = %47
  %56 = load ptr, ptr %8, align 8, !tbaa !30
  %57 = load ptr, ptr %9, align 8, !tbaa !69
  %58 = load i32, ptr %12, align 4, !tbaa !4
  %59 = call zeroext i1 @zend_parse_arg_long_slow(ptr noundef %56, ptr noundef %57, i32 noundef %58)
  store i1 %59, ptr %7, align 1
  br label %62

60:                                               ; preds = %44
  br label %61

61:                                               ; preds = %60, %31
  store i1 true, ptr %7, align 1
  br label %62

62:                                               ; preds = %61, %55, %50
  %63 = load i1, ptr %7, align 1
  ret i1 %63
}

; Function Attrs: alwaysinline nounwind uwtable
define internal zeroext i1 @zend_parse_arg_long(ptr noundef %0, ptr noundef %1, ptr noundef %2, i1 noundef zeroext %3, i32 noundef %4) #7 {
  %6 = alloca ptr, align 8
  %7 = alloca ptr, align 8
  %8 = alloca ptr, align 8
  %9 = alloca i8, align 1
  %10 = alloca i32, align 4
  store ptr %0, ptr %6, align 8, !tbaa !30
  store ptr %1, ptr %7, align 8, !tbaa !69
  store ptr %2, ptr %8, align 8, !tbaa !71
  %11 = zext i1 %3 to i8
  store i8 %11, ptr %9, align 1, !tbaa !64
  store i32 %4, ptr %10, align 4, !tbaa !4
  %12 = load ptr, ptr %6, align 8, !tbaa !30
  %13 = load ptr, ptr %7, align 8, !tbaa !69
  %14 = load ptr, ptr %8, align 8, !tbaa !71
  %15 = load i8, ptr %9, align 1, !tbaa !64, !range !65, !noundef !66
  %16 = trunc i8 %15 to i1
  %17 = load i32, ptr %10, align 4, !tbaa !4
  %18 = call zeroext i1 @zend_parse_arg_long_ex(ptr noundef %12, ptr noundef %13, ptr noundef %14, i1 noundef zeroext %16, i32 noundef %17, i1 noundef zeroext false)
  ret i1 %18
}

; Function Attrs: nounwind uwtable
define hidden void @zif_umask(ptr noundef %0, ptr noundef %1) #0 {
  %3 = alloca ptr, align 8
  %4 = alloca ptr, align 8
  %5 = alloca i64, align 8
  %6 = alloca i8, align 1
  %7 = alloca i32, align 4
  %8 = alloca i32, align 4
  %9 = alloca i32, align 4
  %10 = alloca i32, align 4
  %11 = alloca i32, align 4
  %12 = alloca i32, align 4
  %13 = alloca ptr, align 8
  %14 = alloca ptr, align 8
  %15 = alloca i32, align 4
  %16 = alloca ptr, align 8
  %17 = alloca i8, align 1
  %18 = alloca i8, align 1
  %19 = alloca i32, align 4
  %20 = alloca i32, align 4
  %21 = alloca ptr, align 8
  store ptr %0, ptr %3, align 8, !tbaa !62
  store ptr %1, ptr %4, align 8, !tbaa !30
  call void @llvm.lifetime.start.p0(i64 8, ptr %5) #14
  store i64 0, ptr %5, align 8, !tbaa !29
  call void @llvm.lifetime.start.p0(i64 1, ptr %6) #14
  store i8 1, ptr %6, align 1, !tbaa !64
  call void @llvm.lifetime.start.p0(i64 4, ptr %7) #14
  br label %22

22:                                               ; preds = %2
  call void @llvm.lifetime.start.p0(i64 4, ptr %8) #14
  store i32 0, ptr %8, align 4, !tbaa !4
  call void @llvm.lifetime.start.p0(i64 4, ptr %9) #14
  store i32 0, ptr %9, align 4, !tbaa !4
  call void @llvm.lifetime.start.p0(i64 4, ptr %10) #14
  store i32 1, ptr %10, align 4, !tbaa !4
  call void @llvm.lifetime.start.p0(i64 4, ptr %11) #14
  %23 = load ptr, ptr %3, align 8, !tbaa !62
  %24 = getelementptr inbounds nuw %struct._zend_execute_data, ptr %23, i32 0, i32 4
  %25 = getelementptr inbounds nuw %struct._zval_struct, ptr %24, i32 0, i32 2
  %26 = load i32, ptr %25, align 4, !tbaa !17
  store i32 %26, ptr %11, align 4, !tbaa !4
  call void @llvm.lifetime.start.p0(i64 4, ptr %12) #14
  store i32 0, ptr %12, align 4, !tbaa !4
  call void @llvm.lifetime.start.p0(i64 8, ptr %13) #14
  call void @llvm.lifetime.start.p0(i64 8, ptr %14) #14
  store ptr null, ptr %14, align 8, !tbaa !30
  call void @llvm.lifetime.start.p0(i64 4, ptr %15) #14
  store i32 0, ptr %15, align 4, !tbaa !4
  call void @llvm.lifetime.start.p0(i64 8, ptr %16) #14
  store ptr null, ptr %16, align 8, !tbaa !63
  call void @llvm.lifetime.start.p0(i64 1, ptr %17) #14
  store i8 0, ptr %17, align 1, !tbaa !64
  call void @llvm.lifetime.start.p0(i64 1, ptr %18) #14
  store i8 0, ptr %18, align 1, !tbaa !64
  call void @llvm.lifetime.start.p0(i64 4, ptr %19) #14
  store i32 0, ptr %19, align 4, !tbaa !4
  br label %27

27:                                               ; preds = %22
  %28 = load i32, ptr %11, align 4, !tbaa !4
  %29 = load i32, ptr %9, align 4, !tbaa !4
  %30 = icmp ult i32 %28, %29
  %31 = xor i1 %30, true
  %32 = xor i1 %31, true
  %33 = zext i1 %32 to i32
  %34 = sext i32 %33 to i64
  %35 = call i64 @llvm.expect.i64(i64 %34, i64 0)
  %36 = icmp ne i64 %35, 0
  br i1 %36, label %47, label %37

37:                                               ; preds = %27
  %38 = load i32, ptr %11, align 4, !tbaa !4
  %39 = load i32, ptr %10, align 4, !tbaa !4
  %40 = icmp ugt i32 %38, %39
  %41 = xor i1 %40, true
  %42 = xor i1 %41, true
  %43 = zext i1 %42 to i32
  %44 = sext i32 %43 to i64
  %45 = call i64 @llvm.expect.i64(i64 %44, i64 0)
  %46 = icmp ne i64 %45, 0
  br i1 %46, label %47, label %50

47:                                               ; preds = %37, %27
  %48 = load i32, ptr %9, align 4, !tbaa !4
  %49 = load i32, ptr %10, align 4, !tbaa !4
  call void @zend_wrong_parameters_count_error(i32 noundef %48, i32 noundef %49)
  store i32 1, ptr %19, align 4, !tbaa !4
  br label %114

50:                                               ; preds = %37
  %51 = load ptr, ptr %3, align 8, !tbaa !62
  %52 = getelementptr inbounds %struct._zval_struct, ptr %51, i64 4
  store ptr %52, ptr %13, align 8, !tbaa !30
  store i8 1, ptr %18, align 1, !tbaa !64
  %53 = load i32, ptr %12, align 4, !tbaa !4
  %54 = add i32 %53, 1
  store i32 %54, ptr %12, align 4, !tbaa !4
  %55 = load i32, ptr %12, align 4, !tbaa !4
  %56 = load i32, ptr %9, align 4, !tbaa !4
  %57 = icmp ule i32 %55, %56
  br i1 %57, label %63, label %58

58:                                               ; preds = %50
  %59 = load i8, ptr %18, align 1, !tbaa !64, !range !65, !noundef !66
  %60 = trunc i8 %59 to i1
  %61 = zext i1 %60 to i32
  %62 = icmp eq i32 %61, 1
  br label %63

63:                                               ; preds = %58, %50
  %64 = phi i1 [ true, %50 ], [ %62, %58 ]
  call void @llvm.assume(i1 %64)
  %65 = load i32, ptr %12, align 4, !tbaa !4
  %66 = load i32, ptr %9, align 4, !tbaa !4
  %67 = icmp ugt i32 %65, %66
  br i1 %67, label %73, label %68

68:                                               ; preds = %63
  %69 = load i8, ptr %18, align 1, !tbaa !64, !range !65, !noundef !66
  %70 = trunc i8 %69 to i1
  %71 = zext i1 %70 to i32
  %72 = icmp eq i32 %71, 0
  br label %73

73:                                               ; preds = %68, %63
  %74 = phi i1 [ true, %63 ], [ %72, %68 ]
  call void @llvm.assume(i1 %74)
  %75 = load i8, ptr %18, align 1, !tbaa !64, !range !65, !noundef !66
  %76 = trunc i8 %75 to i1
  br i1 %76, label %77, label %89

77:                                               ; preds = %73
  %78 = load i32, ptr %12, align 4, !tbaa !4
  %79 = load i32, ptr %11, align 4, !tbaa !4
  %80 = icmp ugt i32 %78, %79
  %81 = xor i1 %80, true
  %82 = xor i1 %81, true
  %83 = zext i1 %82 to i32
  %84 = sext i32 %83 to i64
  %85 = call i64 @llvm.expect.i64(i64 %84, i64 0)
  %86 = icmp ne i64 %85, 0
  br i1 %86, label %87, label %88

87:                                               ; preds = %77
  br label %114

88:                                               ; preds = %77
  br label %89

89:                                               ; preds = %88, %73
  %90 = load ptr, ptr %13, align 8, !tbaa !30
  %91 = getelementptr inbounds nuw %struct._zval_struct, ptr %90, i32 1
  store ptr %91, ptr %13, align 8, !tbaa !30
  %92 = load ptr, ptr %13, align 8, !tbaa !30
  store ptr %92, ptr %14, align 8, !tbaa !30
  %93 = load ptr, ptr %14, align 8, !tbaa !30
  %94 = load i32, ptr %12, align 4, !tbaa !4
  %95 = call zeroext i1 @zend_parse_arg_long(ptr noundef %93, ptr noundef %5, ptr noundef %6, i1 noundef zeroext true, i32 noundef %94)
  %96 = xor i1 %95, true
  %97 = xor i1 %96, true
  %98 = xor i1 %97, true
  %99 = zext i1 %98 to i32
  %100 = sext i32 %99 to i64
  %101 = call i64 @llvm.expect.i64(i64 %100, i64 0)
  %102 = icmp ne i64 %101, 0
  br i1 %102, label %103, label %104

103:                                              ; preds = %89
  store i32 1, ptr %15, align 4, !tbaa !4
  store i32 9, ptr %19, align 4, !tbaa !4
  br label %114

104:                                              ; preds = %89
  %105 = load i32, ptr %12, align 4, !tbaa !4
  %106 = load i32, ptr %10, align 4, !tbaa !4
  %107 = icmp eq i32 %105, %106
  br i1 %107, label %111, label %108

108:                                              ; preds = %104
  %109 = load i32, ptr %10, align 4, !tbaa !4
  %110 = icmp eq i32 %109, -1
  br label %111

111:                                              ; preds = %108, %104
  %112 = phi i1 [ true, %104 ], [ %110, %108 ]
  call void @llvm.assume(i1 %112)
  br label %113

113:                                              ; preds = %111
  br label %114

114:                                              ; preds = %113, %103, %87, %47
  %115 = load i32, ptr %19, align 4, !tbaa !4
  %116 = icmp ne i32 %115, 0
  %117 = xor i1 %116, true
  %118 = xor i1 %117, true
  %119 = zext i1 %118 to i32
  %120 = sext i32 %119 to i64
  %121 = call i64 @llvm.expect.i64(i64 %120, i64 0)
  %122 = icmp ne i64 %121, 0
  br i1 %122, label %123, label %129

123:                                              ; preds = %114
  %124 = load i32, ptr %19, align 4, !tbaa !4
  %125 = load i32, ptr %12, align 4, !tbaa !4
  %126 = load ptr, ptr %16, align 8, !tbaa !63
  %127 = load i32, ptr %15, align 4, !tbaa !4
  %128 = load ptr, ptr %14, align 8, !tbaa !30
  call void @zend_wrong_parameter_error(i32 noundef %124, i32 noundef %125, ptr noundef %126, i32 noundef %127, ptr noundef %128)
  store i32 1, ptr %20, align 4
  br label %130

129:                                              ; preds = %114
  store i32 0, ptr %20, align 4
  br label %130

130:                                              ; preds = %129, %123
  call void @llvm.lifetime.end.p0(i64 4, ptr %19) #14
  call void @llvm.lifetime.end.p0(i64 1, ptr %18) #14
  call void @llvm.lifetime.end.p0(i64 1, ptr %17) #14
  call void @llvm.lifetime.end.p0(i64 8, ptr %16) #14
  call void @llvm.lifetime.end.p0(i64 4, ptr %15) #14
  call void @llvm.lifetime.end.p0(i64 8, ptr %14) #14
  call void @llvm.lifetime.end.p0(i64 8, ptr %13) #14
  call void @llvm.lifetime.end.p0(i64 4, ptr %12) #14
  call void @llvm.lifetime.end.p0(i64 4, ptr %11) #14
  call void @llvm.lifetime.end.p0(i64 4, ptr %10) #14
  call void @llvm.lifetime.end.p0(i64 4, ptr %9) #14
  call void @llvm.lifetime.end.p0(i64 4, ptr %8) #14
  %131 = load i32, ptr %20, align 4
  switch i32 %131, label %164 [
    i32 0, label %132
  ]

132:                                              ; preds = %130
  br label %133

133:                                              ; preds = %132
  br label %134

134:                                              ; preds = %133
  %135 = call i32 @umask(i32 noundef 63) #14
  store i32 %135, ptr %7, align 4, !tbaa !4
  %136 = load i32, ptr getelementptr inbounds nuw (%struct._php_basic_globals, ptr @basic_globals, i32 0, i32 30), align 8, !tbaa !113
  %137 = icmp eq i32 %136, -1
  br i1 %137, label %138, label %140

138:                                              ; preds = %134
  %139 = load i32, ptr %7, align 4, !tbaa !4
  store i32 %139, ptr getelementptr inbounds nuw (%struct._php_basic_globals, ptr @basic_globals, i32 0, i32 30), align 8, !tbaa !113
  br label %140

140:                                              ; preds = %138, %134
  %141 = load i8, ptr %6, align 1, !tbaa !64, !range !65, !noundef !66
  %142 = trunc i8 %141 to i1
  br i1 %142, label %143, label %146

143:                                              ; preds = %140
  %144 = load i32, ptr %7, align 4, !tbaa !4
  %145 = call i32 @umask(i32 noundef %144) #14
  br label %150

146:                                              ; preds = %140
  %147 = load i64, ptr %5, align 8, !tbaa !29
  %148 = trunc i64 %147 to i32
  %149 = call i32 @umask(i32 noundef %148) #14
  br label %150

150:                                              ; preds = %146, %143
  br label %151

151:                                              ; preds = %150
  br label %152

152:                                              ; preds = %151
  call void @llvm.lifetime.start.p0(i64 8, ptr %21) #14
  %153 = load ptr, ptr %4, align 8, !tbaa !30
  store ptr %153, ptr %21, align 8, !tbaa !30
  %154 = load i32, ptr %7, align 4, !tbaa !4
  %155 = sext i32 %154 to i64
  %156 = load ptr, ptr %21, align 8, !tbaa !30
  %157 = getelementptr inbounds nuw %struct._zval_struct, ptr %156, i32 0, i32 0
  store i64 %155, ptr %157, align 8, !tbaa !17
  %158 = load ptr, ptr %21, align 8, !tbaa !30
  %159 = getelementptr inbounds nuw %struct._zval_struct, ptr %158, i32 0, i32 1
  store i32 4, ptr %159, align 8, !tbaa !17
  call void @llvm.lifetime.end.p0(i64 8, ptr %21) #14
  br label %160

160:                                              ; preds = %152
  br label %161

161:                                              ; preds = %160
  store i32 1, ptr %20, align 4
  br label %164

162:                                              ; No predecessors!
  br label %163

163:                                              ; preds = %162
  store i32 0, ptr %20, align 4
  br label %164

164:                                              ; preds = %163, %161, %130
  call void @llvm.lifetime.end.p0(i64 4, ptr %7) #14
  call void @llvm.lifetime.end.p0(i64 1, ptr %6) #14
  call void @llvm.lifetime.end.p0(i64 8, ptr %5) #14
  %165 = load i32, ptr %20, align 4
  switch i32 %165, label %167 [
    i32 0, label %166
    i32 1, label %166
  ]

166:                                              ; preds = %164, %164
  ret void

167:                                              ; preds = %164
  unreachable
}