; Function Attrs: nounwind uwtable
define hidden void @zif_umask(ptr noundef %0, ptr noundef writeonly captures(none) %1) local_unnamed_addr #1 {
  %3 = alloca i64, align 8
  call void @llvm.lifetime.start.p0(i64 8, ptr nonnull %3) #18
  store i64 0, ptr %3, align 8, !tbaa !53
  %4 = getelementptr inbounds nuw i8, ptr %0, i64 44
  %5 = load i32, ptr %4, align 4, !tbaa !21
  %6 = icmp ugt i32 %5, 1
  br i1 %6, label %.thread69, label %7, !prof !56

.thread69:                                        ; preds = %2
  tail call void @zend_wrong_parameters_count_error(i32 noundef 0, i32 noundef 1) #18
  br label %16

7:                                                ; preds = %2
  %8 = icmp eq i32 %5, 0
  br i1 %8, label %.critedge, label %9, !prof !56

9:                                                ; preds = %7
  %10 = getelementptr inbounds nuw i8, ptr %0, i64 80
  %11 = getelementptr inbounds nuw i8, ptr %0, i64 88
  %12 = load i8, ptr %11, align 8, !tbaa !21
  switch i8 %12, label %zend_parse_arg_long_ex.exit [
    i8 4, label %13
    i8 1, label %.thread80
  ], !prof !77

13:                                               ; preds = %9
  %14 = load i64, ptr %10, align 8, !tbaa !21
  br label %.thread80

.thread80:                                        ; preds = %9, %13
  %.1 = phi i1 [ false, %13 ], [ true, %9 ]
  %storemerge.i = phi i64 [ %14, %13 ], [ 0, %9 ]
  store i64 %storemerge.i, ptr %3, align 8, !tbaa !53
  br label %.critedge

zend_parse_arg_long_ex.exit:                      ; preds = %9
  %15 = call zeroext i1 @zend_parse_arg_long_slow(ptr noundef nonnull %10, ptr noundef nonnull %3, i32 noundef 1) #18
  %cond.fr45 = freeze i1 %15
  br i1 %cond.fr45, label %.critedge, label %16, !prof !55

16:                                               ; preds = %zend_parse_arg_long_ex.exit, %.thread69
  %.03878 = phi i32 [ 1, %.thread69 ], [ 9, %zend_parse_arg_long_ex.exit ]
  %.03977 = phi ptr [ null, %.thread69 ], [ %10, %zend_parse_arg_long_ex.exit ]
  %.04076 = phi i32 [ 0, %.thread69 ], [ 1, %zend_parse_arg_long_ex.exit ]
  call void @zend_wrong_parameter_error(i32 noundef %.03878, i32 noundef %.04076, ptr noundef null, i32 noundef %.04076, ptr noundef %.03977) #18
  br label %27

.critedge:                                        ; preds = %zend_parse_arg_long_ex.exit, %.thread80, %7
  %.04468 = phi i1 [ true, %7 ], [ %.1, %.thread80 ], [ false, %zend_parse_arg_long_ex.exit ]
  %17 = call i32 @umask(i32 noundef 63) #18
  %18 = load i32, ptr getelementptr inbounds nuw (i8, ptr @basic_globals, i64 1344), align 8, !tbaa !102
  %19 = icmp eq i32 %18, -1
  br i1 %19, label %20, label %21

20:                                               ; preds = %.critedge
  store i32 %17, ptr getelementptr inbounds nuw (i8, ptr @basic_globals, i64 1344), align 8, !tbaa !102
  br label %21

21:                                               ; preds = %20, %.critedge
  %22 = load i64, ptr %3, align 8
  %23 = trunc i64 %22 to i32
  %.sink = select i1 %.04468, i32 %17, i32 %23
  %24 = call i32 @umask(i32 noundef %.sink) #18
  %25 = sext i32 %17 to i64
  store i64 %25, ptr %1, align 8, !tbaa !21
  %26 = getelementptr inbounds nuw i8, ptr %1, i64 8
  store i32 4, ptr %26, align 8, !tbaa !21
  br label %27

27:                                               ; preds = %16, %21
  call void @llvm.lifetime.end.p0(i64 8, ptr nonnull %3) #18
  ret void
}